target datalayout = "e-m:e-p270:32:32-p271:32:32-p272:64:64-i64:64-i128:128-f80:128-n8:16:32:64-S128"
target triple = "x86_64-pc-linux-gnu"

%struct.Proto = type { ptr, i8, i8, ptr, ptr, ptr, ptr, ptr, ptr, ptr, i32, i32, i32, i32, i32, i32, i32, i32, ptr, i8, i8, i8, i8 }
%union.TString = type { %struct.anon }
%struct.anon = type { ptr, i8, i8, i8, i32, i64 }
%struct.lua_TValue = type { %union.Value, i32 }
%union.Value = type { ptr }

@.str.26 = private unnamed_addr constant [4 x i8] c"nil\00", align 1
@.str.27 = private unnamed_addr constant [5 x i8] c"true\00", align 1
@.str.28 = private unnamed_addr constant [6 x i8] c"false\00", align 1
@.str.29 = private unnamed_addr constant [6 x i8] c"%.14g\00", align 1
@.str.30 = private unnamed_addr constant [10 x i8] c"? type=%d\00", align 1
@.str.31 = private unnamed_addr constant [3 x i8] c"\\\22\00", align 1
@.str.32 = private unnamed_addr constant [3 x i8] c"\\\\\00", align 1
@.str.33 = private unnamed_addr constant [3 x i8] c"\\a\00", align 1
@.str.34 = private unnamed_addr constant [3 x i8] c"\\b\00", align 1
@.str.35 = private unnamed_addr constant [3 x i8] c"\\f\00", align 1
@.str.36 = private unnamed_addr constant [3 x i8] c"\\n\00", align 1
@.str.37 = private unnamed_addr constant [3 x i8] c"\\r\00", align 1
@.str.38 = private unnamed_addr constant [3 x i8] c"\\t\00", align 1
@.str.39 = private unnamed_addr constant [3 x i8] c"\\v\00", align 1
@.str.40 = private unnamed_addr constant [6 x i8] c"\\%03u\00", align 1
@stdout = external global ptr, align 8

; Function Attrs: inlinehint nounwind uwtable
define available_externally i32 @putchar(i32 noundef %0) #3 {
  %2 = alloca i32, align 4
  store i32 %0, ptr %2, align 4, !tbaa !9
  %3 = load i32, ptr %2, align 4, !tbaa !9
  %4 = load ptr, ptr @stdout, align 8, !tbaa !62
  %5 = call i32 @putc(i32 noundef %3, ptr noundef %4)
  ret i32 %5
}

; Function Attrs: nounwind uwtable
define internal void @PrintString(ptr noundef %0) #0 {
  %2 = alloca ptr, align 8
  %3 = alloca ptr, align 8
  %4 = alloca i64, align 8
  %5 = alloca i64, align 8
  %6 = alloca i32, align 4
  store ptr %0, ptr %2, align 8, !tbaa !41
  call void @llvm.lifetime.start.p0(i64 8, ptr %3) #5
  %7 = load ptr, ptr %2, align 8, !tbaa !41
  %8 = getelementptr inbounds %union.TString, ptr %7, i64 1
  store ptr %8, ptr %3, align 8, !tbaa !24
  call void @llvm.lifetime.start.p0(i64 8, ptr %4) #5
  call void @llvm.lifetime.start.p0(i64 8, ptr %5) #5
  %9 = load ptr, ptr %2, align 8, !tbaa !41
  %10 = getelementptr inbounds nuw %struct.anon, ptr %9, i32 0, i32 5
  %11 = load i64, ptr %10, align 8, !tbaa !26
  store i64 %11, ptr %5, align 8, !tbaa !55
  %12 = call i32 @putchar(i32 noundef 34)
  store i64 0, ptr %4, align 8, !tbaa !55
  br label %13

13:                                               ; preds = %64, %1
  %14 = load i64, ptr %4, align 8, !tbaa !55
  %15 = load i64, ptr %5, align 8, !tbaa !55
  %16 = icmp ult i64 %14, %15
  br i1 %16, label %17, label %67

17:                                               ; preds = %13
  call void @llvm.lifetime.start.p0(i64 4, ptr %6) #5
  %18 = load ptr, ptr %3, align 8, !tbaa !24
  %19 = load i64, ptr %4, align 8, !tbaa !55
  %20 = getelementptr inbounds nuw i8, ptr %18, i64 %19
  %21 = load i8, ptr %20, align 1, !tbaa !26
  %22 = sext i8 %21 to i32
  store i32 %22, ptr %6, align 4, !tbaa !9
  %23 = load i32, ptr %6, align 4, !tbaa !9
  switch i32 %23, label %42 [
    i32 34, label %24
    i32 92, label %26
    i32 7, label %28
    i32 8, label %30
    i32 12, label %32
    i32 10, label %34
    i32 13, label %36
    i32 9, label %38
    i32 11, label %40
  ]

24:                                               ; preds = %17
  %25 = call i32 (ptr, ...) @printf(ptr noundef @.str.31)
  br label %63

26:                                               ; preds = %17
  %27 = call i32 (ptr, ...) @printf(ptr noundef @.str.32)
  br label %63

28:                                               ; preds = %17
  %29 = call i32 (ptr, ...) @printf(ptr noundef @.str.33)
  br label %63

30:                                               ; preds = %17
  %31 = call i32 (ptr, ...) @printf(ptr noundef @.str.34)
  br label %63

32:                                               ; preds = %17
  %33 = call i32 (ptr, ...) @printf(ptr noundef @.str.35)
  br label %63

34:                                               ; preds = %17
  %35 = call i32 (ptr, ...) @printf(ptr noundef @.str.36)
  br label %63

36:                                               ; preds = %17
  %37 = call i32 (ptr, ...) @printf(ptr noundef @.str.37)
  br label %63

38:                                               ; preds = %17
  %39 = call i32 (ptr, ...) @printf(ptr noundef @.str.38)
  br label %63

40:                                               ; preds = %17
  %41 = call i32 (ptr, ...) @printf(ptr noundef @.str.39)
  br label %63

42:                                               ; preds = %17
  %43 = call ptr @__ctype_b_loc() #6
  %44 = load ptr, ptr %43, align 8, !tbaa !57
  %45 = load i32, ptr %6, align 4, !tbaa !9
  %46 = trunc i32 %45 to i8
  %47 = zext i8 %46 to i32
  %48 = sext i32 %47 to i64
  %49 = getelementptr inbounds i16, ptr %44, i64 %48
  %50 = load i16, ptr %49, align 2, !tbaa !59
  %51 = zext i16 %50 to i32
  %52 = and i32 %51, 16384
  %53 = icmp ne i32 %52, 0
  br i1 %53, label %54, label %57

54:                                               ; preds = %42
  %55 = load i32, ptr %6, align 4, !tbaa !9
  %56 = call i32 @putchar(i32 noundef %55)
  br label %62

57:                                               ; preds = %42
  %58 = load i32, ptr %6, align 4, !tbaa !9
  %59 = trunc i32 %58 to i8
  %60 = zext i8 %59 to i32
  %61 = call i32 (ptr, ...) @printf(ptr noundef @.str.40, i32 noundef %60)
  br label %62

62:                                               ; preds = %57, %54
  br label %63

63:                                               ; preds = %62, %40, %38, %36, %34, %32, %30, %28, %26, %24
  call void @llvm.lifetime.end.p0(i64 4, ptr %6) #5
  br label %64

64:                                               ; preds = %63
  %65 = load i64, ptr %4, align 8, !tbaa !55
  %66 = add i64 %65, 1
  store i64 %66, ptr %4, align 8, !tbaa !55
  br label %13, !llvm.loop !61

67:                                               ; preds = %13
  %68 = call i32 @putchar(i32 noundef 34)
  call void @llvm.lifetime.end.p0(i64 8, ptr %5) #5
  call void @llvm.lifetime.end.p0(i64 8, ptr %4) #5
  call void @llvm.lifetime.end.p0(i64 8, ptr %3) #5
  ret void
}

; Function Attrs: nounwind uwtable
define internal void @PrintConstant(ptr noundef %0, i32 noundef %1) #0 {
  %3 = alloca ptr, align 8
  %4 = alloca i32, align 4
  %5 = alloca ptr, align 8
  store ptr %0, ptr %3, align 8, !tbaa !4
  store i32 %1, ptr %4, align 4, !tbaa !9
  call void @llvm.lifetime.start.p0(i64 8, ptr %5) #5
  %6 = load ptr, ptr %3, align 8, !tbaa !4
  %7 = getelementptr inbounds nuw %struct.Proto, ptr %6, i32 0, i32 3
  %8 = load ptr, ptr %7, align 8, !tbaa !42
  %9 = load i32, ptr %4, align 4, !tbaa !9
  %10 = sext i32 %9 to i64
  %11 = getelementptr inbounds %struct.lua_TValue, ptr %8, i64 %10
  store ptr %11, ptr %5, align 8, !tbaa !52
  %12 = load ptr, ptr %5, align 8, !tbaa !52
  %13 = getelementptr inbounds nuw %struct.lua_TValue, ptr %12, i32 0, i32 1
  %14 = load i32, ptr %13, align 8, !tbaa !53
  switch i32 %14, label %33 [
    i32 0, label %15
    i32 1, label %17
    i32 3, label %24
    i32 4, label %29
  ]

15:                                               ; preds = %2
  %16 = call i32 (ptr, ...) @printf(ptr noundef @.str.26)
  br label %38

17:                                               ; preds = %2
  %18 = load ptr, ptr %5, align 8, !tbaa !52
  %19 = getelementptr inbounds nuw %struct.lua_TValue, ptr %18, i32 0, i32 0
  %20 = load i32, ptr %19, align 8, !tbaa !26
  %21 = icmp ne i32 %20, 0
  %22 = select i1 %21, ptr @.str.27, ptr @.str.28
  %23 = call i32 (ptr, ...) @printf(ptr noundef %22)
  br label %38

24:                                               ; preds = %2
  %25 = load ptr, ptr %5, align 8, !tbaa !52
  %26 = getelementptr inbounds nuw %struct.lua_TValue, ptr %25, i32 0, i32 0
  %27 = load double, ptr %26, align 8, !tbaa !26
  %28 = call i32 (ptr, ...) @printf(ptr noundef @.str.29, double noundef %27)
  br label %38

29:                                               ; preds = %2
  %30 = load ptr, ptr %5, align 8, !tbaa !52
  %31 = getelementptr inbounds nuw %struct.lua_TValue, ptr %30, i32 0, i32 0
  %32 = load ptr, ptr %31, align 8, !tbaa !26
  call void @PrintString(ptr noundef %32)
  br label %38

33:                                               ; preds = %2
  %34 = load ptr, ptr %5, align 8, !tbaa !52
  %35 = getelementptr inbounds nuw %struct.lua_TValue, ptr %34, i32 0, i32 1
  %36 = load i32, ptr %35, align 8, !tbaa !53
  %37 = call i32 (ptr, ...) @printf(ptr noundef @.str.30, i32 noundef %36)
  br label %38

38:                                               ; preds = %33, %29, %24, %17, %15
  call void @llvm.lifetime.end.p0(i64 8, ptr %5) #5
  ret void
}