; Function Attrs: nofree nounwind uwtable
define internal fastcc void @PrintConstant(ptr readonly captures(none) %.16.val, i32 noundef %0) unnamed_addr #0 {
  %2 = sext i32 %0 to i64
  %3 = getelementptr inbounds %struct.lua_TValue, ptr %.16.val, i64 %2
  %4 = getelementptr inbounds nuw i8, ptr %3, i64 8
  %5 = load i32, ptr %4, align 8, !tbaa !53
  switch i32 %5, label %60 [
    i32 0, label %6
    i32 1, label %8
    i32 3, label %12
    i32 4, label %15
  ]

6:                                                ; preds = %1
  %7 = tail call i32 (ptr, ...) @printf(ptr noundef nonnull dereferenceable(1) @.str.26)
  br label %62

8:                                                ; preds = %1
  %9 = load i32, ptr %3, align 8, !tbaa !18
  %.not = icmp eq i32 %9, 0
  %10 = select i1 %.not, ptr @.str.28, ptr @.str.27
  %11 = tail call i32 (ptr, ...) @printf(ptr noundef nonnull dereferenceable(1) %10)
  br label %62

12:                                               ; preds = %1
  %13 = load double, ptr %3, align 8, !tbaa !18
  %14 = tail call i32 (ptr, ...) @printf(ptr noundef nonnull dereferenceable(1) @.str.29, double noundef %13)
  br label %62

15:                                               ; preds = %1
  %16 = load ptr, ptr %3, align 8, !tbaa !18
  %17 = getelementptr inbounds nuw i8, ptr %16, i64 24
  %18 = getelementptr inbounds nuw i8, ptr %16, i64 16
  %19 = load i64, ptr %18, align 8, !tbaa !18
  %20 = load ptr, ptr @stdout, align 8, !tbaa !37
  %21 = tail call noundef i32 @putc(i32 noundef 34, ptr noundef %20)
  %.not11.i = icmp eq i64 %19, 0
  br i1 %.not11.i, label %PrintString.exit, label %.lr.ph.i

.lr.ph.i:                                         ; preds = %15, %56
  %.010.i = phi i64 [ %57, %56 ], [ 0, %15 ]
  %22 = getelementptr inbounds nuw i8, ptr %17, i64 %.010.i
  %23 = load i8, ptr %22, align 1, !tbaa !18
  %24 = sext i8 %23 to i32
  switch i8 %23, label %43 [
    i8 34, label %25
    i8 92, label %27
    i8 7, label %29
    i8 8, label %31
    i8 12, label %33
    i8 10, label %35
    i8 13, label %37
    i8 9, label %39
    i8 11, label %41
  ]

25:                                               ; preds = %.lr.ph.i
  %26 = tail call i32 (ptr, ...) @printf(ptr noundef nonnull dereferenceable(1) @.str.31)
  br label %56

27:                                               ; preds = %.lr.ph.i
  %28 = tail call i32 (ptr, ...) @printf(ptr noundef nonnull dereferenceable(1) @.str.32)
  br label %56

29:                                               ; preds = %.lr.ph.i
  %30 = tail call i32 (ptr, ...) @printf(ptr noundef nonnull dereferenceable(1) @.str.33)
  br label %56

31:                                               ; preds = %.lr.ph.i
  %32 = tail call i32 (ptr, ...) @printf(ptr noundef nonnull dereferenceable(1) @.str.34)
  br label %56

33:                                               ; preds = %.lr.ph.i
  %34 = tail call i32 (ptr, ...) @printf(ptr noundef nonnull dereferenceable(1) @.str.35)
  br label %56

35:                                               ; preds = %.lr.ph.i
  %36 = tail call i32 (ptr, ...) @printf(ptr noundef nonnull dereferenceable(1) @.str.36)
  br label %56

37:                                               ; preds = %.lr.ph.i
  %38 = tail call i32 (ptr, ...) @printf(ptr noundef nonnull dereferenceable(1) @.str.37)
  br label %56

39:                                               ; preds = %.lr.ph.i
  %40 = tail call i32 (ptr, ...) @printf(ptr noundef nonnull dereferenceable(1) @.str.38)
  br label %56

41:                                               ; preds = %.lr.ph.i
  %42 = tail call i32 (ptr, ...) @printf(ptr noundef nonnull dereferenceable(1) @.str.39)
  br label %56

43:                                               ; preds = %.lr.ph.i
  %44 = tail call ptr @__ctype_b_loc() #3
  %45 = load ptr, ptr %44, align 8, !tbaa !55
  %46 = zext i8 %23 to i64
  %47 = getelementptr inbounds nuw i16, ptr %45, i64 %46
  %48 = load i16, ptr %47, align 2, !tbaa !57
  %49 = and i16 %48, 16384
  %.not.i = icmp eq i16 %49, 0
  br i1 %.not.i, label %53, label %50

50:                                               ; preds = %43
  %51 = load ptr, ptr @stdout, align 8, !tbaa !37
  %52 = tail call noundef i32 @putc(i32 noundef %24, ptr noundef %51)
  br label %56

53:                                               ; preds = %43
  %54 = zext i8 %23 to i32
  %55 = tail call i32 (ptr, ...) @printf(ptr noundef nonnull dereferenceable(1) @.str.40, i32 noundef %54)
  br label %56

56:                                               ; preds = %53, %50, %41, %39, %37, %35, %33, %31, %29, %27, %25
  %57 = add nuw i64 %.010.i, 1
  %exitcond.not.i = icmp eq i64 %57, %19
  br i1 %exitcond.not.i, label %PrintString.exit, label %.lr.ph.i, !llvm.loop !59

PrintString.exit:                                 ; preds = %56, %15
  %58 = load ptr, ptr @stdout, align 8, !tbaa !37
  %59 = tail call noundef i32 @putc(i32 noundef 34, ptr noundef %58)
  br label %62

60:                                               ; preds = %1
  %61 = tail call i32 (ptr, ...) @printf(ptr noundef nonnull dereferenceable(1) @.str.30, i32 noundef %5)
  br label %62

62:                                               ; preds = %60, %PrintString.exit, %12, %8, %6
  ret void
}